(dp1
S'failed'
p2
(lp3
sS'source_names'
p4
(lp5
S'tests/client_tests.py'
p6
aS'6'
aS'.'
asS'ids'
p7
(dp8
I1
(S'/Users/shai/src/monitors/py-snow/tests/client_tests.py'
S'tests.client_tests'
p9
S'TestClient.test_get'
tp10
sI2
(S'/Users/shai/src/monitors/py-snow/tests/client_tests.py'
g9
S'TestClient.test_list_date_range'
tp11
sI3
(S'/Users/shai/src/monitors/py-snow/tests/client_tests.py'
g9
S'TestClient.test_list_limit'
tp12
sI4
(S'/Users/shai/src/monitors/py-snow/tests/client_tests.py'
g9
S'TestClient.test_order_by'
tp13
sI5
(S'/Users/shai/src/monitors/py-snow/tests/client_tests.py'
g9
S'TestClient.test_traversing_links'
tp14
sI6
(S'/Users/shai/src/monitors/py-snow/tests/api_tests.py'
S'tests.api_tests'
p15
S'TestApi.test_generic_request'
tp16
sI7
(S'/Users/shai/src/monitors/py-snow/tests/api_tests.py'
g15
S'TestApi.test_url_for_table_api'
tp17
sI8
(S'/Users/shai/src/monitors/py-snow/tests/integration_tests.py'
S'tests.integration_tests'
p18
S'TestClient.test_get'
tp19
sI9
(S'/Users/shai/src/monitors/py-snow/tests/integration_tests.py'
g18
S'TestClient.test_list_date_range'
tp20
sI10
(S'/Users/shai/src/monitors/py-snow/tests/integration_tests.py'
g18
S'TestClient.test_list_limit'
tp21
sI11
(S'/Users/shai/src/monitors/py-snow/tests/integration_tests.py'
g18
S'TestClient.test_order_by'
tp22
sI12
(S'/Users/shai/src/monitors/py-snow/tests/integration_tests.py'
g18
S'TestClient.test_traversing_links'
tp23
sI13
(S'/Users/shai/src/monitors/py-snow/tests/querybuilder_tests.py'
S'tests.querybuilder_tests'
p24
S'TestSnowClientQuery.test_chained_or_queries'
tp25
sI14
(S'/Users/shai/src/monitors/py-snow/tests/querybuilder_tests.py'
g24
S'TestSnowClientQuery.test_chained_or_queries_multi'
tp26
sI15
(S'/Users/shai/src/monitors/py-snow/tests/querybuilder_tests.py'
g24
S'TestSnowClientQuery.test_chained_queries'
tp27
sI16
(S'/Users/shai/src/monitors/py-snow/tests/querybuilder_tests.py'
g24
S'TestSnowClientQuery.test_date_range'
tp28
sI17
(S'/Users/shai/src/monitors/py-snow/tests/querybuilder_tests.py'
g24
S'TestSnowClientQuery.test_orderby'
tp29
sI18
(S'/Users/shai/src/monitors/py-snow/tests/snowrecord_tests.py'
S'tests.snowrecord_tests'
p30
S'TestSnowRecord.test_object_must_have_table_name'
tp31
sI19
(S'/Users/shai/src/monitors/py-snow/tests/snowrecord_tests.py'
g30
S'TestSnowRecord.test_object_read_attr'
tp32
sI20
(S'/Users/shai/src/monitors/py-snow/tests/snowrecord_tests.py'
g30
S'TestSnowRecord.test_object_write_attr'
tp33
sI21
(S'/Users/shai/src/monitors/py-snow/tests/snowrecord_tests.py'
g30
S'TestSnowRecord.test_table_name_private_attr'
tp34
ss.